target datalayout = "e-m:e-p270:32:32-p271:32:32-p272:64:64-i64:64-i128:128-f80:128-n8:16:32:64-S128"
target triple = "x86_64-pc-linux-gnu"

%struct.io_buffer_read_internal_argument = type { i32, ptr, i64, i64 }

; Function Attrs: inlinehint nounwind sspstrong willreturn memory(none) uwtable
define internal i64 @RB_INT2FIX(i64 noundef %0) #11 {
  %2 = alloca i64, align 8
  %3 = alloca i64, align 8
  %4 = alloca i64, align 8
  %5 = alloca i64, align 8
  %6 = alloca i64, align 8
  %7 = alloca i64, align 8
  store i64 %0, ptr %2, align 8, !tbaa !20
  call void @llvm.lifetime.start.p0(i64 8, ptr %3) #22
  %8 = load i64, ptr %2, align 8, !tbaa !20
  store i64 %8, ptr %3, align 8, !tbaa !20
  call void @llvm.lifetime.start.p0(i64 8, ptr %4) #22
  %9 = load i64, ptr %3, align 8, !tbaa !20
  %10 = shl i64 %9, 1
  %11 = add i64 %10, 1
  store i64 %11, ptr %4, align 8, !tbaa !20
  call void @llvm.lifetime.start.p0(i64 8, ptr %5) #22
  %12 = load i64, ptr %4, align 8, !tbaa !20
  store i64 %12, ptr %5, align 8, !tbaa !20
  call void @llvm.lifetime.start.p0(i64 8, ptr %6) #22
  %13 = load i64, ptr %5, align 8, !tbaa !20
  store i64 %13, ptr %6, align 8, !tbaa !20
  call void @llvm.lifetime.start.p0(i64 8, ptr %7) #22
  %14 = load i64, ptr %6, align 8, !tbaa !20
  store i64 %14, ptr %7, align 8, !tbaa !20
  %15 = load i64, ptr %7, align 8, !tbaa !20
  call void @llvm.lifetime.end.p0(i64 8, ptr %7) #22
  call void @llvm.lifetime.end.p0(i64 8, ptr %6) #22
  call void @llvm.lifetime.end.p0(i64 8, ptr %5) #22
  call void @llvm.lifetime.end.p0(i64 8, ptr %4) #22
  call void @llvm.lifetime.end.p0(i64 8, ptr %3) #22
  ret i64 %15
}

; Function Attrs: inlinehint nounwind sspstrong uwtable
define internal i64 @rb_ull2num_inline(i64 noundef %0) #3 {
  %2 = alloca i64, align 8
  %3 = alloca i64, align 8
  store i64 %0, ptr %3, align 8, !tbaa !45
  %4 = load i64, ptr %3, align 8, !tbaa !45
  %5 = icmp ult i64 %4, 4611686018427387904
  br i1 %5, label %6, label %9

6:                                                ; preds = %1
  %7 = load i64, ptr %3, align 8, !tbaa !45
  %8 = call i64 @RB_INT2FIX(i64 noundef %7) #24
  store i64 %8, ptr %2, align 8
  br label %12

9:                                                ; preds = %1
  %10 = load i64, ptr %3, align 8, !tbaa !45
  %11 = call i64 @rb_ull2inum(i64 noundef %10)
  store i64 %11, ptr %2, align 8
  br label %12

12:                                               ; preds = %9, %6
  %13 = load i64, ptr %2, align 8
  ret i64 %13
}

; Function Attrs: inlinehint nounwind sspstrong uwtable
define internal i64 @rb_int2num_inline(i32 noundef %0) #3 {
  %2 = alloca i64, align 8
  %3 = alloca i32, align 4
  store i32 %0, ptr %3, align 4, !tbaa !32
  %4 = load i32, ptr %3, align 4, !tbaa !32
  %5 = sext i32 %4 to i64
  %6 = icmp slt i64 %5, 4611686018427387904
  br i1 %6, label %7, label %15

7:                                                ; preds = %1
  %8 = load i32, ptr %3, align 4, !tbaa !32
  %9 = sext i32 %8 to i64
  %10 = icmp sge i64 %9, -4611686018427387904
  br i1 %10, label %11, label %15

11:                                               ; preds = %7
  %12 = load i32, ptr %3, align 4, !tbaa !32
  %13 = sext i32 %12 to i64
  %14 = call i64 @RB_INT2FIX(i64 noundef %13) #24
  store i64 %14, ptr %2, align 8
  br label %19

15:                                               ; preds = %7, %1
  %16 = load i32, ptr %3, align 4, !tbaa !32
  %17 = sext i32 %16 to i64
  %18 = call i64 @rb_int2big(i64 noundef %17)
  store i64 %18, ptr %2, align 8
  br label %19

19:                                               ; preds = %15, %11
  %20 = load i64, ptr %2, align 8
  ret i64 %20
}

; Function Attrs: inlinehint nounwind sspstrong uwtable
define internal i64 @rb_fiber_scheduler_io_result(i64 noundef %0, i32 noundef %1) #3 {
  %3 = alloca i64, align 8
  %4 = alloca i64, align 8
  %5 = alloca i32, align 4
  store i64 %0, ptr %4, align 8, !tbaa !20
  store i32 %1, ptr %5, align 4, !tbaa !32
  %6 = load i64, ptr %4, align 8, !tbaa !20
  %7 = icmp eq i64 %6, -1
  br i1 %7, label %8, label %12

8:                                                ; preds = %2
  %9 = load i32, ptr %5, align 4, !tbaa !32
  %10 = sub i32 0, %9
  %11 = call i64 @rb_int2num_inline(i32 noundef %10)
  store i64 %11, ptr %3, align 8
  br label %15

12:                                               ; preds = %2
  %13 = load i64, ptr %4, align 8, !tbaa !20
  %14 = call i64 @rb_ull2num_inline(i64 noundef %13)
  store i64 %14, ptr %3, align 8
  br label %15

15:                                               ; preds = %12, %8
  %16 = load i64, ptr %3, align 8
  ret i64 %16
}

; Function Attrs: nounwind sspstrong uwtable
define internal i64 @io_buffer_read_internal(ptr noundef %0) #0 {
  %2 = alloca i64, align 8
  %3 = alloca ptr, align 8
  %4 = alloca i64, align 8
  %5 = alloca ptr, align 8
  %6 = alloca i64, align 8
  %7 = alloca i32, align 4
  store ptr %0, ptr %3, align 8, !tbaa !7
  call void @llvm.lifetime.start.p0(i64 8, ptr %4) #22
  store i64 0, ptr %4, align 8, !tbaa !20
  call void @llvm.lifetime.start.p0(i64 8, ptr %5) #22
  %8 = load ptr, ptr %3, align 8, !tbaa !7
  store ptr %8, ptr %5, align 8, !tbaa !62
  br label %9

9:                                                ; preds = %65, %1
  br label %10

10:                                               ; preds = %9
  call void @llvm.lifetime.start.p0(i64 8, ptr %6) #22
  %11 = load ptr, ptr %5, align 8, !tbaa !62
  %12 = getelementptr inbounds nuw %struct.io_buffer_read_internal_argument, ptr %11, i32 0, i32 0
  %13 = load i32, ptr %12, align 8, !tbaa !48
  %14 = load ptr, ptr %5, align 8, !tbaa !62
  %15 = getelementptr inbounds nuw %struct.io_buffer_read_internal_argument, ptr %14, i32 0, i32 1
  %16 = load ptr, ptr %15, align 8, !tbaa !50
  %17 = load ptr, ptr %5, align 8, !tbaa !62
  %18 = getelementptr inbounds nuw %struct.io_buffer_read_internal_argument, ptr %17, i32 0, i32 2
  %19 = load i64, ptr %18, align 8, !tbaa !51
  %20 = call i64 @read(i32 noundef %13, ptr noundef %16, i64 noundef %19)
  store i64 %20, ptr %6, align 8, !tbaa !20
  %21 = load i64, ptr %6, align 8, !tbaa !20
  %22 = icmp slt i64 %21, 0
  br i1 %22, label %23, label %28

23:                                               ; preds = %10
  %24 = load i64, ptr %6, align 8, !tbaa !20
  %25 = call ptr @rb_errno_ptr()
  %26 = load i32, ptr %25, align 4, !tbaa !32
  %27 = call i64 @rb_fiber_scheduler_io_result(i64 noundef %24, i32 noundef %26)
  store i64 %27, ptr %2, align 8
  store i32 1, ptr %7, align 4
  br label %63

28:                                               ; preds = %10
  %29 = load i64, ptr %6, align 8, !tbaa !20
  %30 = icmp eq i64 %29, 0
  br i1 %30, label %31, label %34

31:                                               ; preds = %28
  %32 = load i64, ptr %4, align 8, !tbaa !20
  %33 = call i64 @rb_fiber_scheduler_io_result(i64 noundef %32, i32 noundef 0)
  store i64 %33, ptr %2, align 8
  store i32 1, ptr %7, align 4
  br label %63

34:                                               ; preds = %28
  %35 = load i64, ptr %6, align 8, !tbaa !20
  %36 = load i64, ptr %4, align 8, !tbaa !20
  %37 = add i64 %36, %35
  store i64 %37, ptr %4, align 8, !tbaa !20
  %38 = load i64, ptr %4, align 8, !tbaa !20
  %39 = load ptr, ptr %5, align 8, !tbaa !62
  %40 = getelementptr inbounds nuw %struct.io_buffer_read_internal_argument, ptr %39, i32 0, i32 3
  %41 = load i64, ptr %40, align 8, !tbaa !52
  %42 = icmp uge i64 %38, %41
  br i1 %42, label %43, label %46

43:                                               ; preds = %34
  %44 = load i64, ptr %4, align 8, !tbaa !20
  %45 = call i64 @rb_fiber_scheduler_io_result(i64 noundef %44, i32 noundef 0)
  store i64 %45, ptr %2, align 8
  store i32 1, ptr %7, align 4
  br label %63

46:                                               ; preds = %34
  %47 = load ptr, ptr %5, align 8, !tbaa !62
  %48 = getelementptr inbounds nuw %struct.io_buffer_read_internal_argument, ptr %47, i32 0, i32 1
  %49 = load ptr, ptr %48, align 8, !tbaa !50
  %50 = load i64, ptr %6, align 8, !tbaa !20
  %51 = getelementptr i8, ptr %49, i64 %50
  %52 = load ptr, ptr %5, align 8, !tbaa !62
  %53 = getelementptr inbounds nuw %struct.io_buffer_read_internal_argument, ptr %52, i32 0, i32 1
  store ptr %51, ptr %53, align 8, !tbaa !50
  %54 = load ptr, ptr %5, align 8, !tbaa !62
  %55 = getelementptr inbounds nuw %struct.io_buffer_read_internal_argument, ptr %54, i32 0, i32 2
  %56 = load i64, ptr %55, align 8, !tbaa !51
  %57 = load i64, ptr %6, align 8, !tbaa !20
  %58 = sub i64 %56, %57
  %59 = load ptr, ptr %5, align 8, !tbaa !62
  %60 = getelementptr inbounds nuw %struct.io_buffer_read_internal_argument, ptr %59, i32 0, i32 2
  store i64 %58, ptr %60, align 8, !tbaa !51
  br label %61

61:                                               ; preds = %46
  br label %62

62:                                               ; preds = %61
  store i32 0, ptr %7, align 4
  br label %63

63:                                               ; preds = %62, %43, %31, %23
  call void @llvm.lifetime.end.p0(i64 8, ptr %6) #22
  %64 = load i32, ptr %7, align 4
  switch i32 %64, label %66 [
    i32 0, label %65
  ]

65:                                               ; preds = %63
  br label %9

66:                                               ; preds = %63
  call void @llvm.lifetime.end.p0(i64 8, ptr %5) #22
  call void @llvm.lifetime.end.p0(i64 8, ptr %4) #22
  %67 = load i64, ptr %2, align 8
  ret i64 %67
}